(dp0
S'00018.ppm'
p1
(lp2
I4
asS'00517.ppm'
p3
(lp4
I10
asS'00245.ppm'
p5
(lp6
I10
aI10
asS'00132.ppm'
p7
(lp8
I18
asS'00520.ppm'
p9
(lp10
I10
asS'00304.ppm'
p11
(lp12
I35
asS'00456.ppm'
p13
(lp14
I3
asS'00049.ppm'
p15
(lp16
I37
aI12
asS'00072.ppm'
p17
(lp18
I4
asS'00202.ppm'
p19
(lp20
I14
aI14
asS'00352.ppm'
p21
(lp22
I6
aI6
asS'00017.ppm'
p23
(lp24
I30
aI11
asS'00224.ppm'
p25
(lp26
I28
aI1
aI9
asS'00379.ppm'
p27
(lp28
I8
aI10
aI10
aI8
asS'00149.ppm'
p29
(lp30
I4
aI12
aI12
asS'00346.ppm'
p31
(lp32
I5
aI5
asS'00021.ppm'
p33
(lp34
I27
asS'00255.ppm'
p35
(lp36
I38
asS'00147.ppm'
p37
(lp38
I20
asS'00270.ppm'
p39
(lp40
I41
aI2
aI2
asS'00382.ppm'
p41
(lp42
I8
aI10
aI8
aI10
asS'00048.ppm'
p43
(lp44
I40
aI13
aI38
asS'00303.ppm'
p45
(lp46
I2
asS'00445.ppm'
p47
(lp48
I5
aI5
asS'00172.ppm'
p49
(lp50
I25
aI1
asS'00142.ppm'
p51
(lp52
I2
asS'00036.ppm'
p53
(lp54
I12
aI35
asS'00390.ppm'
p55
(lp56
I8
aI8
asS'00488.ppm'
p57
(lp58
I38
asS'00251.ppm'
p59
(lp60
I38
asS'00344.ppm'
p61
(lp62
I12
asS'00192.ppm'
p63
(lp64
I17
aI1
aI12
asS'00416.ppm'
p65
(lp66
I3
asS'00014.ppm'
p67
(lp68
I21
asS'00113.ppm'
p69
(lp70
I10
asS'00225.ppm'
p71
(lp72
I1
asS'00362.ppm'
p73
(lp74
I30
asS'00422.ppm'
p75
(lp76
I23
asS'00388.ppm'
p77
(lp78
I13
asS'00186.ppm'
p79
(lp80
I4
aI4
aI12
asS'00058.ppm'
p81
(lp82
I12
asS'00039.ppm'
p83
(lp84
I12
aI35
asS'00078.ppm'
p85
(lp86
I29
aI13
asS'00367.ppm'
p87
(lp88
I8
aI10
aI8
aI10
asS'00492.ppm'
p89
(lp90
I11
asS'00260.ppm'
p91
(lp92
I0
asS'00443.ppm'
p93
(lp94
I18
aI8
aI18
aI8
asS'00302.ppm'
p95
(lp96
I42
asS'00374.ppm'
p97
(lp98
I13
aI12
asS'00458.ppm'
p99
(lp100
I12
asS'00449.ppm'
p101
(lp102
I13
aI13
asS'00396.ppm'
p103
(lp104
I7
aI7
asS'00250.ppm'
p105
(lp106
I38
aI2
asS'00432.ppm'
p107
(lp108
I8
aI8
asS'00427.ppm'
p109
(lp110
I5
asS'00121.ppm'
p111
(lp112
I7
asS'00438.ppm'
p113
(lp114
I41
aI41
asS'00215.ppm'
p115
(lp116
I39
asS'00022.ppm'
p117
(lp118
I27
asS'00490.ppm'
p119
(lp120
I13
aI38
aI40
asS'00481.ppm'
p121
(lp122
I18
asS'00472.ppm'
p123
(lp124
I12
asS'00105.ppm'
p125
(lp126
I18
aI26
asS'00054.ppm'
p127
(lp128
I27
aI0
aI12
aI38
asS'00350.ppm'
p129
(lp130
I10
aI10
asS'00278.ppm'
p131
(lp132
I40
aI13
asS'00271.ppm'
p133
(lp134
I2
aI2
asS'00184.ppm'
p135
(lp136
I1
asS'00461.ppm'
p137
(lp138
I12
asS'00376.ppm'
p139
(lp140
I6
aI6
asS'00386.ppm'
p141
(lp142
I10
aI10
asS'00411.ppm'
p143
(lp144
I38
aI17
aI17
asS'00112.ppm'
p145
(lp146
I3
aI3
asS'00043.ppm'
p147
(lp148
I12
aI36
aI35
asS'00034.ppm'
p149
(lp150
I28
asS'00267.ppm'
p151
(lp152
I36
aI12
asS'00599.ppm'
p153
(lp154
I9
asS'00069.ppm'
p155
(lp156
I2
asS'00158.ppm'
p157
(lp158
I41
asS'00076.ppm'
p159
(lp160
I21
aI2
asS'00063.ppm'
p161
(lp162
I9
asS'00047.ppm'
p163
(lp164
I26
asS'00369.ppm'
p165
(lp166
I8
aI10
aI8
aI10
asS'00372.ppm'
p167
(lp168
I4
asS'00387.ppm'
p169
(lp170
I30
aI30
asS'00206.ppm'
p171
(lp172
I34
aI33
aI38
aI13
aI13
asS'00551.ppm'
p173
(lp174
I16
asS'00466.ppm'
p175
(lp176
I13
aI13
aI35
aI34
asS'00566.ppm'
p177
(lp178
I9
aI9
aI38
asS'00231.ppm'
p179
(lp180
I1
asS'00297.ppm'
p181
(lp182
I26
aI26
asS'00031.ppm'
p183
(lp184
I25
aI12
asS'00542.ppm'
p185
(lp186
I12
asS'00314.ppm'
p187
(lp188
I5
aI5
asS'00111.ppm'
p189
(lp190
I3
aI3
asS'00130.ppm'
p191
(lp192
I1
aI1
aI18
asS'00395.ppm'
p193
(lp194
I6
aI6
asS'00337.ppm'
p195
(lp196
I12
asS'00284.ppm'
p197
(lp198
I12
aI2
asS'00153.ppm'
p199
(lp200
I35
asS'00020.ppm'
p201
(lp202
I23
asS'00528.ppm'
p203
(lp204
I7
aI7
asS'00505.ppm'
p205
(lp206
I12
asS'00330.ppm'
p207
(lp208
I2
asS'00347.ppm'
p209
(lp210
I30
asS'00175.ppm'
p211
(lp212
I9
asS'00087.ppm'
p213
(lp214
I6
aI6
asS'00373.ppm'
p215
(lp216
I4
aI4
asS'00008.ppm'
p217
(lp218
I2
aI12
asS'00323.ppm'
p219
(lp220
I10
aI10
asS'00383.ppm'
p221
(lp222
I30
aI30
asS'00212.ppm'
p223
(lp224
I34
aI12
aI33
asS'00468.ppm'
p225
(lp226
I3
asS'00560.ppm'
p227
(lp228
I3
asS'00467.ppm'
p229
(lp230
I3
asS'00433.ppm'
p231
(lp232
I25
asS'00500.ppm'
p233
(lp234
I5
asS'00305.ppm'
p235
(lp236
I11
aI18
asS'00001.ppm'
p237
(lp238
I40
aI38
aI13
asS'00244.ppm'
p239
(lp240
I10
aI10
asS'00277.ppm'
p241
(lp242
I16
asS'00478.ppm'
p243
(lp244
I5
aI5
asS'00080.ppm'
p245
(lp246
I9
asS'00148.ppm'
p247
(lp248
I30
asS'00318.ppm'
p249
(lp250
I15
aI38
asS'00341.ppm'
p251
(lp252
I13
asS'00264.ppm'
p253
(lp254
I4
aI9
aI9
asS'00423.ppm'
p255
(lp256
I25
aI25
asS'00378.ppm'
p257
(lp258
I10
aI8
asS'00068.ppm'
p259
(lp260
I13
asS'00220.ppm'
p261
(lp262
I1
asS'00252.ppm'
p263
(lp264
I9
aI1
asS'00413.ppm'
p265
(lp266
I3
asS'00009.ppm'
p267
(lp268
I4
asS'00019.ppm'
p269
(lp270
I12
aI2
asS'00288.ppm'
p271
(lp272
I5
aI5
asS'00038.ppm'
p273
(lp274
I12
asS'00241.ppm'
p275
(lp276
I2
asS'00570.ppm'
p277
(lp278
I9
asS'00042.ppm'
p279
(lp280
I18
asS'00431.ppm'
p281
(lp282
I8
aI8
asS'00448.ppm'
p283
(lp284
I38
asS'00160.ppm'
p285
(lp286
I25
asS'00171.ppm'
p287
(lp288
I4
aI9
asS'00307.ppm'
p289
(lp290
I17
aI17
aI22
aI38
asS'00384.ppm'
p291
(lp292
I8
aI10
asS'00023.ppm'
p293
(lp294
I1
aI23
aI23
asS'00081.ppm'
p295
(lp296
I13
aI38
asS'00194.ppm'
p297
(lp298
I28
asS'00493.ppm'
p299
(lp300
I18
asS'00144.ppm'
p301
(lp302
I4
asS'00309.ppm'
p303
(lp304
I7
aI7
asS'00164.ppm'
p305
(lp306
I26
asS'00523.ppm'
p307
(lp308
I10
aI10
asS'00046.ppm'
p309
(lp310
I12
asS'00435.ppm'
p311
(lp312
I9
asS'00471.ppm'
p313
(lp314
I12
asS'00098.ppm'
p315
(lp316
I13
aI13
asS'00426.ppm'
p317
(lp318
I25
asS'00157.ppm'
p319
(lp320
I9
aI9
aI38
asS'00173.ppm'
p321
(lp322
I1
asS'00497.ppm'
p323
(lp324
I38
asS'00104.ppm'
p325
(lp326
I25
aI13
asS'00457.ppm'
p327
(lp328
I2
aI2
asS'00397.ppm'
p329
(lp330
I10
aI4
asS'00273.ppm'
p331
(lp332
I29
asS'00073.ppm'
p333
(lp334
I23
aI2
aI9
aI23
aI2
aI9
asS'00090.ppm'
p335
(lp336
I13
asS'00571.ppm'
p337
(lp338
I17
asS'00363.ppm'
p339
(lp340
I8
aI10
asS'00214.ppm'
p341
(lp342
I14
aI33
asS'00219.ppm'
p343
(lp344
I13
aI33
asS'00266.ppm'
p345
(lp346
I18
asS'00377.ppm'
p347
(lp348
I8
aI8
aI10
aI10
asS'00025.ppm'
p349
(lp350
I13
aI40
asS'00340.ppm'
p351
(lp352
I14
aI33
aI14
asS'00161.ppm'
p353
(lp354
I34
asS'00093.ppm'
p355
(lp356
I1
aI1
asS'00062.ppm'
p357
(lp358
I12
asS'00207.ppm'
p359
(lp360
I25
asS'00434.ppm'
p361
(lp362
I5
asS'00044.ppm'
p363
(lp364
I12
asS'00406.ppm'
p365
(lp366
I18
aI18
aI30
aI30
asS'00035.ppm'
p367
(lp368
I38
aI13
asS'00499.ppm'
p369
(lp370
I13
asS'00185.ppm'
p371
(lp372
I2
asS'00496.ppm'
p373
(lp374
I8
aI10
asS'00460.ppm'
p375
(lp376
I12
aI33
asS'00010.ppm'
p377
(lp378
I12
asS'00122.ppm'
p379
(lp380
I7
aI7
asS'00228.ppm'
p381
(lp382
I1
asS'00504.ppm'
p383
(lp384
I38
asS'00101.ppm'
p385
(lp386
I5
asS'00138.ppm'
p387
(lp388
I15
aI15
asS'00150.ppm'
p389
(lp390
I2
asS'00079.ppm'
p391
(lp392
I11
asS'00536.ppm'
p393
(lp394
I17
aI17
aI38
asS'00092.ppm'
p395
(lp396
I13
aI12
aI35
asS'00398.ppm'
p397
(lp398
I26
aI4
aI10
asS'00045.ppm'
p399
(lp400
I38
asS'00055.ppm'
p401
(lp402
I25
asS'00282.ppm'
p403
(lp404
I29
asS'00095.ppm'
p405
(lp406
I1
aI19
asS'00272.ppm'
p407
(lp408
I18
aI18
asS'00156.ppm'
p409
(lp410
I9
asS'00248.ppm'
p411
(lp412
I5
aI5
asS'00339.ppm'
p413
(lp414
I1
aI12
asS'00232.ppm'
p415
(lp416
I38
aI13
aI13
asS'00265.ppm'
p417
(lp418
I24
aI18
aI1
asS'00204.ppm'
p419
(lp420
I1
aI34
asS'00312.ppm'
p421
(lp422
I5
aI22
aI22
asS'00136.ppm'
p423
(lp424
I11
asS'00030.ppm'
p425
(lp426
I38
asS'00165.ppm'
p427
(lp428
I1
aI11
asS'00292.ppm'
p429
(lp430
I8
aI8
asS'00287.ppm'
p431
(lp432
I2
asS'00086.ppm'
p433
(lp434
I12
asS'00476.ppm'
p435
(lp436
I7
aI7
asS'00351.ppm'
p437
(lp438
I5
asS'00548.ppm'
p439
(lp440
I14
aI36
asS'00501.ppm'
p441
(lp442
I4
aI4
aI17
aI38
asS'00075.ppm'
p443
(lp444
I23
aI4
asS'00210.ppm'
p445
(lp446
I35
aI12
asS'00230.ppm'
p447
(lp448
I1
aI28
asS'00221.ppm'
p449
(lp450
I26
asS'00552.ppm'
p451
(lp452
I8
aI10
aI8
aI10
asS'00195.ppm'
p453
(lp454
I11
aI18
asS'00319.ppm'
p455
(lp456
I3
aI3
asS'00385.ppm'
p457
(lp458
I8
aI8
asS'00430.ppm'
p459
(lp460
I13
asS'00263.ppm'
p461
(lp462
I2
asS'00011.ppm'
p463
(lp464
I1
aI21
asS'00196.ppm'
p465
(lp466
I13
aI33
aI38
asS'00333.ppm'
p467
(lp468
I14
aI14
asS'00358.ppm'
p469
(lp470
I8
asS'00167.ppm'
p471
(lp472
I2
aI2
asS'00357.ppm'
p473
(lp474
I10
aI10
asS'00084.ppm'
p475
(lp476
I38
asS'00320.ppm'
p477
(lp478
I32
aI32
asS'00007.ppm'
p479
(lp480
I9
asS'00170.ppm'
p481
(lp482
I4
asS'00115.ppm'
p483
(lp484
I14
aI38
asS'00247.ppm'
p485
(lp486
I5
aI5
asS'00066.ppm'
p487
(lp488
I38
asS'00306.ppm'
p489
(lp490
I20
aI20
asS'00118.ppm'
p491
(lp492
I38
asS'00298.ppm'
p493
(lp494
I22
aI2
aI11
asS'00371.ppm'
p495
(lp496
I5
asS'00174.ppm'
p497
(lp498
I28
aI2
aI12
asS'00322.ppm'
p499
(lp500
I5
aI5
asS'00470.ppm'
p501
(lp502
I1
aI13
aI12
asS'00135.ppm'
p503
(lp504
I1
asS'00197.ppm'
p505
(lp506
I11
asS'00201.ppm'
p507
(lp508
I13
asS'00169.ppm'
p509
(lp510
I2
asS'00494.ppm'
p511
(lp512
I1
asS'00166.ppm'
p513
(lp514
I1
asS'00253.ppm'
p515
(lp516
I9
asS'00348.ppm'
p517
(lp518
I5
asS'00190.ppm'
p519
(lp520
I35
asS'00544.ppm'
p521
(lp522
I11
aI25
aI1
asS'00211.ppm'
p523
(lp524
I11
asS'00109.ppm'
p525
(lp526
I3
asS'00421.ppm'
p527
(lp528
I13
asS'00483.ppm'
p529
(lp530
I7
aI7
asS'00290.ppm'
p531
(lp532
I5
asS'00183.ppm'
p533
(lp534
I19
asS'00123.ppm'
p535
(lp536
I7
aI7
asS'00229.ppm'
p537
(lp538
I28
aI1
aI9
asS'00300.ppm'
p539
(lp540
I25
aI2
asS'00451.ppm'
p541
(lp542
I11
asS'00293.ppm'
p543
(lp544
I7
aI7
asS'00275.ppm'
p545
(lp546
I33
aI33
asS'00487.ppm'
p547
(lp548
I38
asS'00131.ppm'
p549
(lp550
I9
aI1
asS'00418.ppm'
p551
(lp552
I22
aI8
asS'00360.ppm'
p553
(lp554
I8
aI8
asS'00024.ppm'
p555
(lp556
I13
asS'00412.ppm'
p557
(lp558
I7
asS'00004.ppm'
p559
(lp560
I21
aI2
asS'00283.ppm'
p561
(lp562
I4
asS'00498.ppm'
p563
(lp564
I38
aI17
asS'00313.ppm'
p565
(lp566
I6
asS'00040.ppm'
p567
(lp568
I33
aI13
asS'00593.ppm'
p569
(lp570
I38
asS'00099.ppm'
p571
(lp572
I20
asS'00032.ppm'
p573
(lp574
I13
aI33
asS'00380.ppm'
p575
(lp576
I10
aI10
aI8
aI8
asS'00218.ppm'
p577
(lp578
I33
asS'00114.ppm'
p579
(lp580
I3
asS'00447.ppm'
p581
(lp582
I13
asS'00310.ppm'
p583
(lp584
I42
aI42
asS'00575.ppm'
p585
(lp586
I38
asS'00291.ppm'
p587
(lp588
I3
asS'00155.ppm'
p589
(lp590
I38
asS'00477.ppm'
p591
(lp592
I5
asS'00134.ppm'
p593
(lp594
I1
asS'00029.ppm'
p595
(lp596
I15
asS'00414.ppm'
p597
(lp598
I3
asS'00405.ppm'
p599
(lp600
I4
aI4
aI12
asS'00124.ppm'
p601
(lp602
I4
aI4
asS'00233.ppm'
p603
(lp604
I38
asS'00200.ppm'
p605
(lp606
I14
aI34
aI17
aI17
asS'00343.ppm'
p607
(lp608
I15
aI15
asS'00295.ppm'
p609
(lp610
I6
aI6
asS'00393.ppm'
p611
(lp612
I23
asS'00391.ppm'
p613
(lp614
I6
aI6
asS'00141.ppm'
p615
(lp616
I2
asS'00440.ppm'
p617
(lp618
I23
asS'00463.ppm'
p619
(lp620
I38
asS'00257.ppm'
p621
(lp622
I25
aI25
asS'00286.ppm'
p623
(lp624
I14
asS'00531.ppm'
p625
(lp626
I10
aI10
asS'00205.ppm'
p627
(lp628
I25
asS'00249.ppm'
p629
(lp630
I2
asS'00436.ppm'
p631
(lp632
I5
asS'00237.ppm'
p633
(lp634
I14
aI14
asS'00137.ppm'
p635
(lp636
I11
asS'00013.ppm'
p637
(lp638
I2
asS'00179.ppm'
p639
(lp640
I12
asS'00311.ppm'
p641
(lp642
I8
aI8
asS'00301.ppm'
p643
(lp644
I22
aI2
asS'00074.ppm'
p645
(lp646
I38
aI14
aI14
asS'00006.ppm'
p647
(lp648
I2
asS'00425.ppm'
p649
(lp650
I5
aI5
aI10
aI10
asS'00316.ppm'
p651
(lp652
I20
aI3
aI20
aI3
asS'00508.ppm'
p653
(lp654
I11
asS'00100.ppm'
p655
(lp656
I30
aI30
asS'00096.ppm'
p657
(lp658
I17
aI17
asS'00482.ppm'
p659
(lp660
I12
aI17
aI17
aI13
asS'00176.ppm'
p661
(lp662
I2
asS'00067.ppm'
p663
(lp664
I9
asS'00294.ppm'
p665
(lp666
I22
aI22
asS'00420.ppm'
p667
(lp668
I3
aI3
asS'00246.ppm'
p669
(lp670
I10
aI10
asS'00465.ppm'
p671
(lp672
I13
asS'00441.ppm'
p673
(lp674
I8
asS'00554.ppm'
p675
(lp676
I18
asS'00419.ppm'
p677
(lp678
I7
asS'00239.ppm'
p679
(lp680
I18
aI1
aI12
asS'00236.ppm'
p681
(lp682
I14
asS'00486.ppm'
p683
(lp684
I7
asS'00515.ppm'
p685
(lp686
I3
asS'00262.ppm'
p687
(lp688
I36
aI12
asS'00094.ppm'
p689
(lp690
I16
aI16
asS'00085.ppm'
p691
(lp692
I1
asS'00401.ppm'
p693
(lp694
I4
aI4
asS'00127.ppm'
p695
(lp696
I5
aI5
asS'00356.ppm'
p697
(lp698
I30
aI30
asS'00338.ppm'
p699
(lp700
I26
aI2
aI26
aI2
asS'00450.ppm'
p701
(lp702
I11
asS'00163.ppm'
p703
(lp704
I38
asS'00217.ppm'
p705
(lp706
I1
asS'00177.ppm'
p707
(lp708
I14
aI14
aI38
aI13
asS'00475.ppm'
p709
(lp710
I7
asS'00189.ppm'
p711
(lp712
I18
asS'00012.ppm'
p713
(lp714
I1
asS'00392.ppm'
p715
(lp716
I7
asS'00564.ppm'
p717
(lp718
I11
asS'00453.ppm'
p719
(lp720
I28
aI11
aI28
asS'00028.ppm'
p721
(lp722
I25
aI35
asS'00129.ppm'
p723
(lp724
I9
aI26
asS'00276.ppm'
p725
(lp726
I29
aI38
asS'00199.ppm'
p727
(lp728
I11
asS'00178.ppm'
p729
(lp730
I2
asS'00106.ppm'
p731
(lp732
I25
asS'00484.ppm'
p733
(lp734
I16
aI16
asS'00052.ppm'
p735
(lp736
I36
aI12
asS'00519.ppm'
p737
(lp738
I7
asS'00168.ppm'
p739
(lp740
I18
asS'00005.ppm'
p741
(lp742
I9
asS'00064.ppm'
p743
(lp744
I2
asS'00083.ppm'
p745
(lp746
I13
aI40
asS'00151.ppm'
p747
(lp748
I1
asS'00089.ppm'
p749
(lp750
I5
aI5
asS'00102.ppm'
p751
(lp752
I13
aI34
asS'00545.ppm'
p753
(lp754
I15
asS'00050.ppm'
p755
(lp756
I34
aI13
asS'00408.ppm'
p757
(lp758
I18
aI18
asS'00070.ppm'
p759
(lp760
I23
asS'00370.ppm'
p761
(lp762
I8
aI10
aI8
aI10
asS'00119.ppm'
p763
(lp764
I23
aI12
asS'00041.ppm'
p765
(lp766
I38
asS'00524.ppm'
p767
(lp768
I7
aI7
asS'00274.ppm'
p769
(lp770
I0
asS'00116.ppm'
p771
(lp772
I35
aI17
asS'00452.ppm'
p773
(lp774
I25
asS'00349.ppm'
p775
(lp776
I10
aI10
asS'00125.ppm'
p777
(lp778
I2
asS'00485.ppm'
p779
(lp780
I16
asS'00059.ppm'
p781
(lp782
I12
asS'00502.ppm'
p783
(lp784
I17
aI17
aI38
asS'00359.ppm'
p785
(lp786
I8
aI8
asS'00455.ppm'
p787
(lp788
I11
asS'00003.ppm'
p789
(lp790
I4
aI9
aI21
asS'00299.ppm'
p791
(lp792
I42
asS'00404.ppm'
p793
(lp794
I4
aI4
asS'00193.ppm'
p795
(lp796
I14
asS'00140.ppm'
p797
(lp798
I14
asS'00507.ppm'
p799
(lp800
I11
aI38
asS'00180.ppm'
p801
(lp802
I2
asS'00514.ppm'
p803
(lp804
I10
aI10
asS'00446.ppm'
p805
(lp806
I17
aI17
aI38
asS'00027.ppm'
p807
(lp808
I2
aI2
asS'00191.ppm'
p809
(lp810
I11
asS'00402.ppm'
p811
(lp812
I42
asS'00242.ppm'
p813
(lp814
I15
aI13
asS'00182.ppm'
p815
(lp816
I2
aI41
asS'00415.ppm'
p817
(lp818
I9
asS'00082.ppm'
p819
(lp820
I38
asS'00061.ppm'
p821
(lp822
I2
asS'00234.ppm'
p823
(lp824
I1
asS'00439.ppm'
p825
(lp826
I8
asS'00033.ppm'
p827
(lp828
I38
asS'00117.ppm'
p829
(lp830
I17
aI38
asS'00071.ppm'
p831
(lp832
I24
aI1
aI9
asS'00556.ppm'
p833
(lp834
I38
asS'00107.ppm'
p835
(lp836
I25
aI1
asS'00516.ppm'
p837
(lp838
I34
asS'00281.ppm'
p839
(lp840
I31
aI2
asS'00223.ppm'
p841
(lp842
I1
asS'00159.ppm'
p843
(lp844
I39
aI39
aI38
aI38
asS'00444.ppm'
p845
(lp846
I20
aI20
aI7
aI7
asS'00126.ppm'
p847
(lp848
I2
aI2
asS'00143.ppm'
p849
(lp850
I12
asS'00209.ppm'
p851
(lp852
I33
aI13
asS'00216.ppm'
p853
(lp854
I5
aI5
asS'00203.ppm'
p855
(lp856
I0
asS'00015.ppm'
p857
(lp858
I25
asS'00227.ppm'
p859
(lp860
I18
asS'00509.ppm'
p861
(lp862
I11
asS'00103.ppm'
p863
(lp864
I36
aI12
asS'00512.ppm'
p865
(lp866
I5
aI5
asS'00353.ppm'
p867
(lp868
I10
aI10
asS'00417.ppm'
p869
(lp870
I18
asS'00491.ppm'
p871
(lp872
I38
asS'00188.ppm'
p873
(lp874
I11
asS'00256.ppm'
p875
(lp876
I18
asS'00162.ppm'
p877
(lp878
I17
aI17
aI17
asS'00238.ppm'
p879
(lp880
I18
aI1
asS'00259.ppm'
p881
(lp882
I1
asS'00154.ppm'
p883
(lp884
I35
asS'00557.ppm'
p885
(lp886
I23
aI13
asS'00530.ppm'
p887
(lp888
I10
aI10
asS'00473.ppm'
p889
(lp890
I10
aI10
asS'00240.ppm'
p891
(lp892
I1
asS'00120.ppm'
p893
(lp894
I2
asS'00403.ppm'
p895
(lp896
I42
aI42
aI4
aI4
asS'00527.ppm'
p897
(lp898
I10
aI10
asS'00051.ppm'
p899
(lp900
I12
asS'00315.ppm'
p901
(lp902
I6
aI6
asS'00088.ppm'
p903
(lp904
I10
aI10
aI8
aI8
asS'00513.ppm'
p905
(lp906
I7
asS'00268.ppm'
p907
(lp908
I2
asS'00428.ppm'
p909
(lp910
I7
aI7
asS'00091.ppm'
p911
(lp912
I13
aI13
aI13
asS'00053.ppm'
p913
(lp914
I15
aI35
asS'00060.ppm'
p915
(lp916
I38
aI2
asS'00565.ppm'
p917
(lp918
I12
asS'00133.ppm'
p919
(lp920
I12
aI36
aI35
asS'00261.ppm'
p921
(lp922
I35
asS'00317.ppm'
p923
(lp924
I32
asS'00037.ppm'
p925
(lp926
I38
asS'00065.ppm'
p927
(lp928
I9
asS'00521.ppm'
p929
(lp930
I7
aI7
asS'00296.ppm'
p931
(lp932
I7
aI7
asS'00057.ppm'
p933
(lp934
I1
asS'00097.ppm'
p935
(lp936
I13
aI13
aI38
asS'00355.ppm'
p937
(lp938
I10
asS'00518.ppm'
p939
(lp940
I7
asS'00016.ppm'
p941
(lp942
I12
asS'00208.ppm'
p943
(lp944
I18
asS'00289.ppm'
p945
(lp946
I6
aI6
asS'00146.ppm'
p947
(lp948
I41
aI28
aI2
asS'00480.ppm'
p949
(lp950
I2
asS'00459.ppm'
p951
(lp952
I25
aI1
asS'00269.ppm'
p953
(lp954
I9
asS'00279.ppm'
p955
(lp956
I38
asS'00285.ppm'
p957
(lp958
I14
asS'00128.ppm'
p959
(lp960
I12
asS'00258.ppm'
p961
(lp962
I11
aI11
asS'00400.ppm'
p963
(lp964
I26
asS'00181.ppm'
p965
(lp966
I4
asS'00368.ppm'
p967
(lp968
I8
aI10
asS'00222.ppm'
p969
(lp970
I1
asS'00366.ppm'
p971
(lp972
I8
aI10
aI8
aI10
asS'00280.ppm'
p973
(lp974
I2
aI12
asS'00479.ppm'
p975
(lp976
I13
aI40
asS'00567.ppm'
p977
(lp978
I22
asS'00026.ppm'
p979
(lp980
I1
asS'00243.ppm'
p981
(lp982
I2
asS'00334.ppm'
p983
(lp984
I15
aI2
asS'00110.ppm'
p985
(lp986
I9
asS'00056.ppm'
p987
(lp988
I1
asS'00226.ppm'
p989
(lp990
I1
asS'00375.ppm'
p991
(lp992
I13
asS'00002.ppm'
p993
(lp994
I39
asS'00410.ppm'
p995
(lp996
I38
asS'00474.ppm'
p997
(lp998
I7
aI7
asS'00152.ppm'
p999
(lp1000
I12
asS'00187.ppm'
p1001
(lp1002
I2
aI2
asS'00254.ppm'
p1003
(lp1004
I2
aI23
asS'00198.ppm'
p1005
(lp1006
I36
aI14
asS'00503.ppm'
p1007
(lp1008
I38
asS'00077.ppm'
p1009
(lp1010
I20
aI9
as.